target datalayout = "e-m:e-p270:32:32-p271:32:32-p272:64:64-i64:64-i128:128-f80:128-n8:16:32:64-S128"
target triple = "x86_64-pc-linux-gnu"

%class.PhaseMacroExpand = type <{ %class.Phase, ptr, %class.CallProjections, i8, [7 x i8] }>
%class.Phase = type { i32, ptr }
%class.CallProjections = type { ptr, ptr, ptr, ptr, ptr, ptr, ptr, ptr, ptr }
%class.Node.base = type <{ ptr, ptr, ptr, i32, i32, i32, i32, i32, i32, i32 }>
%class.MultiNode.base = type { %class.Node.base }
%class.ReplacedNodes = type { ptr }
%class.CallNode = type { %class.SafePointNode.base, ptr, ptr, float, ptr, ptr }
%class.SafePointNode.base = type <{ %class.MultiNode.base, [4 x i8], ptr, ptr, %class.ReplacedNodes, i8 }>
%class.Type = type <{ ptr, ptr, i32, [4 x i8] }>
%class.Type.base = type <{ ptr, ptr, i32 }>
%class.VectorSet = type { i32, ptr, i32, ptr }
%class.GrowableArray.0 = type { %class.GrowableArrayWithAllocator.1, %class.GrowableArrayMetadata }
%class.GrowableArrayWithAllocator.1 = type { %class.GrowableArrayView.2 }
%class.GrowableArrayView.2 = type { %class.GrowableArrayBase, ptr }
%class.GrowableArrayBase = type { i32, i32 }
%class.GrowableArrayMetadata = type { i64 }
%class.Compile = type <{ %class.Phase, i32, %class.Options, [4 x i8], ptr, i32, [4 x i8], ptr, ptr, ptr, ptr, ptr, i32, i32, i32, [4 x i8], i64, i8, i8, [2 x i8], i32, i8, i8, i8, i8, i8, i8, i8, i8, i8, [3 x i8], i32, i8, [3 x i8], [30 x i32], i8, [3 x i8], i32, i8, i8, i8, i8, i8, i8, i8, i8, i8, i8, i8, i8, i8, [3 x i8], i32, i32, [4 x i8], %class.Arena, ptr, ptr, ptr, ptr, %class.CHeapStringHolder, ptr, %class.GrowableArray, %class.GrowableArray.0, %class.GrowableArray.3, %class.GrowableArray.0, %class.GrowableArray.0, %class.GrowableArray.0, %class.GrowableArray.6, %class.GrowableArray.9, ptr, i32, i32, %class.VectorSet, %class.Arena, %class.Arena, ptr, ptr, ptr, ptr, ptr, ptr, ptr, ptr, ptr, %class.Arena, ptr, ptr, %class.CloneMap, i64, ptr, ptr, ptr, i32, i32, [64 x %"struct.Compile::AliasCacheEntry"], ptr, ptr, ptr, ptr, %class.GrowableArray, %class.GrowableArray, %class.GrowableArray, %class.GrowableArray, i32, i32, i8, [7 x i8], ptr, ptr, i32, [4 x i8], ptr, ptr, ptr, i32, i32, ptr, ptr, %class.RegMask, ptr, ptr, i32, [4 x i8], ptr, %class.TimeInstant, i32, [4 x i8] }>
%class.Options = type { i8, i8, i8, i8, i8, i8, i8, i8 }
%class.CHeapStringHolder = type { ptr }
%class.GrowableArray.3 = type { %class.GrowableArrayWithAllocator.4, %class.GrowableArrayMetadata }
%class.GrowableArrayWithAllocator.4 = type { %class.GrowableArrayView.5 }
%class.GrowableArrayView.5 = type { %class.GrowableArrayBase, ptr }
%class.GrowableArray.6 = type { %class.GrowableArrayWithAllocator.7, %class.GrowableArrayMetadata }
%class.GrowableArrayWithAllocator.7 = type { %class.GrowableArrayView.8 }
%class.GrowableArrayView.8 = type { %class.GrowableArrayBase, ptr }
%class.GrowableArray.9 = type { %class.GrowableArrayWithAllocator.10, %class.GrowableArrayMetadata }
%class.GrowableArrayWithAllocator.10 = type { %class.GrowableArrayView.11 }
%class.GrowableArrayView.11 = type { %class.GrowableArrayBase, ptr }
%class.Arena = type { i8, i8, i64, ptr, ptr, ptr, ptr }
%class.CloneMap = type <{ i8, [7 x i8], ptr, i32, [4 x i8] }>
%"struct.Compile::AliasCacheEntry" = type { ptr, i32 }
%class.GrowableArray = type { %class.GrowableArrayWithAllocator, %class.GrowableArrayMetadata }
%class.GrowableArrayWithAllocator = type { %class.GrowableArrayView }
%class.GrowableArrayView = type { %class.GrowableArrayBase, ptr }
%class.RegMask = type { %union.anon, i32, i32 }
%union.anon = type { [11 x i64] }
%class.TimeInstant = type { %class.CompositeCounterRepresentation }
%class.CompositeCounterRepresentation = type { %class.Representation }
%class.Representation = type { %class.PairRep }
%class.PairRep = type { i64, i64 }
%class.JVMState = type { ptr, i32, i32, i32, i32, i32, i32, i32, i32, i32, ptr, ptr }
%class.TypeFunc = type { %class.Type.base, ptr, ptr }
%class.TypeTuple = type { %class.Type.base, i32, ptr }

@.str.4 = private unnamed_addr constant [26 x i8] c"jvms bci='%d' method='%d'\00", align 1
@.str.6 = private unnamed_addr constant [27 x i8] c"eliminate_boxing type='%d'\00", align 1
@.str.7 = private unnamed_addr constant [17 x i8] c"eliminate_boxing\00", align 1

; Function Attrs: mustprogress nounwind uwtable
define linkonce_odr hidden noundef ptr @_ZN10ciMetadata17as_instance_klassEv(ptr noundef nonnull align 8 dereferenceable(24) %0) #1 comdat align 2 {
  %2 = alloca ptr, align 8
  store ptr %0, ptr %2, align 8
  %3 = load ptr, ptr %2, align 8
  ret ptr %3
}

; Function Attrs: mustprogress nounwind uwtable
define linkonce_odr hidden noundef ptr @_ZNK8JVMState6callerEv(ptr noundef nonnull align 8 dereferenceable(64) %0) #1 comdat align 2 {
  %2 = alloca ptr, align 8
  store ptr %0, ptr %2, align 8
  %3 = load ptr, ptr %2, align 8
  %4 = getelementptr inbounds %class.JVMState, ptr %3, i32 0, i32 0
  %5 = load ptr, ptr %4, align 8
  ret ptr %5
}

; Function Attrs: mustprogress nounwind uwtable
define linkonce_odr hidden noundef ptr @_ZNK8JVMState6methodEv(ptr noundef nonnull align 8 dereferenceable(64) %0) #1 comdat align 2 {
  %2 = alloca ptr, align 8
  store ptr %0, ptr %2, align 8
  %3 = load ptr, ptr %2, align 8
  %4 = getelementptr inbounds %class.JVMState, ptr %3, i32 0, i32 10
  %5 = load ptr, ptr %4, align 8
  ret ptr %5
}

; Function Attrs: mustprogress nounwind uwtable
define linkonce_odr hidden noundef i32 @_ZNK8JVMState3bciEv(ptr noundef nonnull align 8 dereferenceable(64) %0) #1 comdat align 2 {
  %2 = alloca ptr, align 8
  store ptr %0, ptr %2, align 8
  %3 = load ptr, ptr %2, align 8
  %4 = getelementptr inbounds %class.JVMState, ptr %3, i32 0, i32 8
  %5 = load i32, ptr %4, align 4
  ret i32 %5
}

; Function Attrs: mustprogress nounwind uwtable
define linkonce_odr hidden noundef ptr @_ZNK11TypeInstPtr14instance_klassEv(ptr noundef nonnull align 8 dereferenceable(80) %0) #1 comdat align 2 {
  %2 = alloca ptr, align 8
  store ptr %0, ptr %2, align 8
  %3 = load ptr, ptr %2, align 8
  %4 = load ptr, ptr %3, align 8
  %5 = getelementptr inbounds ptr, ptr %4, i64 29
  %6 = load ptr, ptr %5, align 8
  %7 = call noundef ptr %6(ptr noundef nonnull align 8 dereferenceable(80) %3)
  %8 = call noundef ptr @_ZN10ciMetadata17as_instance_klassEv(ptr noundef nonnull align 8 dereferenceable(24) %7)
  ret ptr %8
}

; Function Attrs: mustprogress nounwind uwtable
define linkonce_odr hidden noundef ptr @_ZNK7Compile3logEv(ptr noundef nonnull align 8 dereferenceable(2316) %0) #1 comdat align 2 {
  %2 = alloca ptr, align 8
  store ptr %0, ptr %2, align 8
  %3 = load ptr, ptr %2, align 8
  %4 = getelementptr inbounds %class.Compile, ptr %3, i32 0, i32 59
  %5 = load ptr, ptr %4, align 8
  ret ptr %5
}

; Function Attrs: mustprogress nounwind uwtable
define linkonce_odr hidden noundef ptr @_ZNK4Type11isa_instptrEv(ptr noundef nonnull align 8 dereferenceable(20) %0) #1 comdat align 2 {
  %2 = alloca ptr, align 8
  store ptr %0, ptr %2, align 8
  %3 = load ptr, ptr %2, align 8
  %4 = getelementptr inbounds %class.Type, ptr %3, i32 0, i32 2
  %5 = load i32, ptr %4, align 8
  %6 = icmp eq i32 %5, 21
  br i1 %6, label %7, label %8

7:                                                ; preds = %1
  br label %9

8:                                                ; preds = %1
  br label %9

9:                                                ; preds = %8, %7
  %10 = phi ptr [ %3, %7 ], [ null, %8 ]
  ret ptr %10
}

; Function Attrs: mustprogress nounwind uwtable
define linkonce_odr hidden noundef ptr @_ZNK9TypeTuple8field_atEj(ptr noundef nonnull align 8 dereferenceable(32) %0, i32 noundef %1) #1 comdat align 2 {
  %3 = alloca ptr, align 8
  %4 = alloca i32, align 4
  store ptr %0, ptr %3, align 8
  store i32 %1, ptr %4, align 4
  %5 = load ptr, ptr %3, align 8
  %6 = getelementptr inbounds %class.TypeTuple, ptr %5, i32 0, i32 2
  %7 = load ptr, ptr %6, align 8
  %8 = load i32, ptr %4, align 4
  %9 = zext i32 %8 to i64
  %10 = getelementptr inbounds ptr, ptr %7, i64 %9
  %11 = load ptr, ptr %10, align 8
  ret ptr %11
}

; Function Attrs: mustprogress nounwind uwtable
define linkonce_odr hidden noundef ptr @_ZNK8TypeFunc5rangeEv(ptr noundef nonnull align 8 dereferenceable(40) %0) #1 comdat align 2 {
  %2 = alloca ptr, align 8
  store ptr %0, ptr %2, align 8
  %3 = load ptr, ptr %2, align 8
  %4 = getelementptr inbounds %class.TypeFunc, ptr %3, i32 0, i32 2
  %5 = load ptr, ptr %4, align 8
  ret ptr %5
}

; Function Attrs: mustprogress nounwind uwtable
define linkonce_odr hidden noundef ptr @_ZNK8CallNode2tfEv(ptr noundef nonnull align 8 dereferenceable(128) %0) #1 comdat align 2 {
  %2 = alloca ptr, align 8
  store ptr %0, ptr %2, align 8
  %3 = load ptr, ptr %2, align 8
  %4 = getelementptr inbounds %class.CallNode, ptr %3, i32 0, i32 1
  %5 = load ptr, ptr %4, align 8
  ret ptr %5
}

; Function Attrs: mustprogress nounwind uwtable
define linkonce_odr hidden noundef zeroext i1 @_ZNK7Compile16eliminate_boxingEv(ptr noundef nonnull align 8 dereferenceable(2316) %0) #1 comdat align 2 {
  %2 = alloca ptr, align 8
  store ptr %0, ptr %2, align 8
  %3 = load ptr, ptr %2, align 8
  %4 = getelementptr inbounds %class.Compile, ptr %3, i32 0, i32 2
  %5 = getelementptr inbounds %class.Options, ptr %4, i32 0, i32 4
  %6 = load i8, ptr %5, align 4
  %7 = trunc i8 %6 to i1
  ret i1 %7
}

; Function Attrs: mustprogress nounwind uwtable
define hidden noundef zeroext i1 @_ZN16PhaseMacroExpand21eliminate_boxing_nodeEP18CallStaticJavaNode(ptr noundef nonnull align 8 dereferenceable(97) %0, ptr noundef %1) #1 align 2 {
  %3 = alloca i1, align 1
  %4 = alloca ptr, align 8
  %5 = alloca ptr, align 8
  %6 = alloca ptr, align 8
  %7 = alloca ptr, align 8
  %8 = alloca ptr, align 8
  %9 = alloca ptr, align 8
  store ptr %0, ptr %4, align 8
  store ptr %1, ptr %5, align 8
  %10 = load ptr, ptr %4, align 8
  %11 = getelementptr inbounds %class.Phase, ptr %10, i32 0, i32 1
  %12 = load ptr, ptr %11, align 8
  %13 = call noundef zeroext i1 @_ZNK7Compile16eliminate_boxingEv(ptr noundef nonnull align 8 dereferenceable(2316) %12)
  br i1 %13, label %14, label %18

14:                                               ; preds = %2
  %15 = load ptr, ptr %5, align 8
  %16 = call noundef ptr @_ZNK9MultiNode16proj_out_or_nullEj(ptr noundef nonnull align 8 dereferenceable(52) %15, i32 noundef 5)
  %17 = icmp ne ptr %16, null
  br i1 %17, label %18, label %19

18:                                               ; preds = %14, %2
  store i1 false, ptr %3, align 1
  br label %61

19:                                               ; preds = %14
  %20 = load ptr, ptr %5, align 8
  %21 = getelementptr inbounds %class.PhaseMacroExpand, ptr %10, i32 0, i32 2
  call void @_ZN8CallNode19extract_projectionsEP15CallProjectionsbb(ptr noundef nonnull align 8 dereferenceable(128) %20, ptr noundef %21, i1 noundef zeroext false, i1 noundef zeroext false)
  %22 = load ptr, ptr %5, align 8
  %23 = call noundef ptr @_ZNK8CallNode2tfEv(ptr noundef nonnull align 8 dereferenceable(128) %22)
  %24 = call noundef ptr @_ZNK8TypeFunc5rangeEv(ptr noundef nonnull align 8 dereferenceable(40) %23)
  store ptr %24, ptr %6, align 8
  %25 = load ptr, ptr %6, align 8
  %26 = call noundef ptr @_ZNK9TypeTuple8field_atEj(ptr noundef nonnull align 8 dereferenceable(32) %25, i32 noundef 5)
  %27 = call noundef ptr @_ZNK4Type11isa_instptrEv(ptr noundef nonnull align 8 dereferenceable(20) %26)
  store ptr %27, ptr %7, align 8
  %28 = getelementptr inbounds %class.Phase, ptr %10, i32 0, i32 1
  %29 = load ptr, ptr %28, align 8
  %30 = call noundef ptr @_ZNK7Compile3logEv(ptr noundef nonnull align 8 dereferenceable(2316) %29)
  store ptr %30, ptr %8, align 8
  %31 = load ptr, ptr %8, align 8
  %32 = icmp ne ptr %31, null
  br i1 %32, label %33, label %59

33:                                               ; preds = %19
  %34 = load ptr, ptr %8, align 8
  %35 = load ptr, ptr %8, align 8
  %36 = load ptr, ptr %7, align 8
  %37 = call noundef ptr @_ZNK11TypeInstPtr14instance_klassEv(ptr noundef nonnull align 8 dereferenceable(80) %36)
  %38 = call noundef i32 @_ZN10CompileLog8identifyEP12ciBaseObject(ptr noundef nonnull align 8 dereferenceable(440) %35, ptr noundef %37)
  call void (ptr, ptr, ...) @_ZN9xmlStream4headEPKcz(ptr noundef nonnull align 8 dereferenceable(152) %34, ptr noundef @.str.6, i32 noundef %38)
  %39 = load ptr, ptr %5, align 8
  %40 = load ptr, ptr %39, align 8
  %41 = getelementptr inbounds ptr, ptr %40, i64 18
  %42 = load ptr, ptr %41, align 8
  %43 = call noundef ptr %42(ptr noundef nonnull align 8 dereferenceable(81) %39)
  store ptr %43, ptr %9, align 8
  br label %44

44:                                               ; preds = %47, %33
  %45 = load ptr, ptr %9, align 8
  %46 = icmp ne ptr %45, null
  br i1 %46, label %47, label %57

47:                                               ; preds = %44
  %48 = load ptr, ptr %8, align 8
  %49 = load ptr, ptr %9, align 8
  %50 = call noundef i32 @_ZNK8JVMState3bciEv(ptr noundef nonnull align 8 dereferenceable(64) %49)
  %51 = load ptr, ptr %8, align 8
  %52 = load ptr, ptr %9, align 8
  %53 = call noundef ptr @_ZNK8JVMState6methodEv(ptr noundef nonnull align 8 dereferenceable(64) %52)
  %54 = call noundef i32 @_ZN10CompileLog8identifyEP12ciBaseObject(ptr noundef nonnull align 8 dereferenceable(440) %51, ptr noundef %53)
  call void (ptr, ptr, ...) @_ZN9xmlStream4elemEPKcz(ptr noundef nonnull align 8 dereferenceable(152) %48, ptr noundef @.str.4, i32 noundef %50, i32 noundef %54)
  %55 = load ptr, ptr %9, align 8
  %56 = call noundef ptr @_ZNK8JVMState6callerEv(ptr noundef nonnull align 8 dereferenceable(64) %55)
  store ptr %56, ptr %9, align 8
  br label %44, !llvm.loop !29

57:                                               ; preds = %44
  %58 = load ptr, ptr %8, align 8
  call void @_ZN9xmlStream4tailEPKc(ptr noundef nonnull align 8 dereferenceable(152) %58, ptr noundef @.str.7)
  br label %59

59:                                               ; preds = %57, %19
  %60 = load ptr, ptr %5, align 8
  call void @_ZN16PhaseMacroExpand27process_users_of_allocationEP8CallNode(ptr noundef nonnull align 8 dereferenceable(97) %10, ptr noundef %60)
  store i1 true, ptr %3, align 1
  br label %61

61:                                               ; preds = %59, %18
  %62 = load i1, ptr %3, align 1
  ret i1 %62
}