; Function Attrs: mustprogress nounwind uwtable
define hidden noundef zeroext i1 @_ZN16PhaseMacroExpand21eliminate_boxing_nodeEP18CallStaticJavaNode(ptr noundef nonnull align 8 dereferenceable(97) %0, ptr noundef %1) local_unnamed_addr #0 align 2 {
  %3 = getelementptr inbounds i8, ptr %0, i64 8
  %4 = load ptr, ptr %3, align 8
  %5 = getelementptr inbounds i8, ptr %4, i64 24
  %6 = load i8, ptr %5, align 4
  %7 = trunc i8 %6 to i1
  br i1 %7, label %8, label %43

8:                                                ; preds = %2
  %9 = tail call noundef ptr @_ZNK9MultiNode16proj_out_or_nullEj(ptr noundef nonnull align 8 dereferenceable(52) %1, i32 noundef 5) #8
  %.not = icmp eq ptr %9, null
  br i1 %.not, label %10, label %43

10:                                               ; preds = %8
  %11 = getelementptr inbounds i8, ptr %0, i64 24
  tail call void @_ZN8CallNode19extract_projectionsEP15CallProjectionsbb(ptr noundef nonnull align 8 dereferenceable(128) %1, ptr noundef nonnull %11, i1 noundef zeroext false, i1 noundef zeroext false) #8
  %12 = load ptr, ptr %3, align 8
  %13 = getelementptr inbounds i8, ptr %12, i64 368
  %14 = load ptr, ptr %13, align 8
  %.not21 = icmp eq ptr %14, null
  br i1 %.not21, label %42, label %15

15:                                               ; preds = %10
  %16 = getelementptr inbounds i8, ptr %1, i64 88
  %17 = load ptr, ptr %16, align 8
  %18 = getelementptr inbounds i8, ptr %17, i64 32
  %19 = load ptr, ptr %18, align 8
  %20 = getelementptr inbounds i8, ptr %19, i64 24
  %21 = load ptr, ptr %20, align 8
  %22 = getelementptr inbounds i8, ptr %21, i64 40
  %23 = load ptr, ptr %22, align 8
  %24 = getelementptr inbounds i8, ptr %23, i64 16
  %25 = load i32, ptr %24, align 8
  %26 = icmp eq i32 %25, 21
  %..i = select i1 %26, ptr %23, ptr null
  %27 = load ptr, ptr %..i, align 8
  %28 = getelementptr inbounds i8, ptr %27, i64 232
  %29 = load ptr, ptr %28, align 8
  %30 = tail call noundef ptr %29(ptr noundef nonnull align 8 dereferenceable(80) %..i) #8
  %31 = tail call noundef i32 @_ZN10CompileLog8identifyEP12ciBaseObject(ptr noundef nonnull align 8 dereferenceable(440) %14, ptr noundef %30) #8
  tail call void (ptr, ptr, ...) @_ZN9xmlStream4headEPKcz(ptr noundef nonnull align 8 dereferenceable(152) %14, ptr noundef nonnull @.str.6, i32 noundef %31) #8
  %32 = load ptr, ptr %1, align 8
  %33 = getelementptr inbounds i8, ptr %32, i64 144
  %34 = load ptr, ptr %33, align 8
  %35 = tail call noundef ptr %34(ptr noundef nonnull align 8 dereferenceable(81) %1) #8
  %.not2223 = icmp eq ptr %35, null
  br i1 %.not2223, label %._crit_edge, label %.lr.ph

.lr.ph:                                           ; preds = %15, %.lr.ph
  %.024 = phi ptr [ %41, %.lr.ph ], [ %35, %15 ]
  %36 = getelementptr inbounds i8, ptr %.024, i64 36
  %37 = load i32, ptr %36, align 4
  %38 = getelementptr inbounds i8, ptr %.024, i64 48
  %39 = load ptr, ptr %38, align 8
  %40 = tail call noundef i32 @_ZN10CompileLog8identifyEP12ciBaseObject(ptr noundef nonnull align 8 dereferenceable(440) %14, ptr noundef %39) #8
  tail call void (ptr, ptr, ...) @_ZN9xmlStream4elemEPKcz(ptr noundef nonnull align 8 dereferenceable(152) %14, ptr noundef nonnull @.str.4, i32 noundef %37, i32 noundef %40) #8
  %41 = load ptr, ptr %.024, align 8
  %.not22 = icmp eq ptr %41, null
  br i1 %.not22, label %._crit_edge, label %.lr.ph, !llvm.loop !33

._crit_edge:                                      ; preds = %.lr.ph, %15
  tail call void @_ZN9xmlStream4tailEPKc(ptr noundef nonnull align 8 dereferenceable(152) %14, ptr noundef nonnull @.str.7) #8
  br label %42

42:                                               ; preds = %._crit_edge, %10
  tail call void @_ZN16PhaseMacroExpand27process_users_of_allocationEP8CallNode(ptr noundef nonnull align 8 dereferenceable(97) %0, ptr noundef nonnull %1)
  br label %43

43:                                               ; preds = %2, %8, %42
  %.019 = phi i1 [ true, %42 ], [ false, %8 ], [ false, %2 ]
  ret i1 %.019
}